; Function Attrs: nounwind uwtable
define dso_local void @_ZThn56_N4node2fs10FileHandle8CloseReqD1Ev(ptr noundef %this) unnamed_addr #4 align 2 {
entry:
  %req_.i.i = getelementptr inbounds i8, ptr %this, i64 32
  tail call void @uv_fs_req_cleanup(ptr noundef nonnull %req_.i.i) #30
  %promise_.i = getelementptr inbounds i8, ptr %this, i64 472
  %0 = load ptr, ptr %promise_.i, align 8
  %cmp.i.i.i = icmp eq ptr %0, null
  br i1 %cmp.i.i.i, label %_ZN2v814PersistentBaseINS_7PromiseEE5ResetEv.exit.i, label %if.end.i.i

if.end.i.i:                                       ; preds = %entry
  tail call void @_ZN2v812api_internal13DisposeGlobalEPm(ptr noundef nonnull %0) #30
  store ptr null, ptr %promise_.i, align 8
  br label %_ZN2v814PersistentBaseINS_7PromiseEE5ResetEv.exit.i

_ZN2v814PersistentBaseINS_7PromiseEE5ResetEv.exit.i: ; preds = %if.end.i.i, %entry
  %ref_.i = getelementptr inbounds i8, ptr %this, i64 480
  %1 = load ptr, ptr %ref_.i, align 8
  %cmp.i.i8.i = icmp eq ptr %1, null
  br i1 %cmp.i.i8.i, label %_ZN4node2fs10FileHandle8CloseReqD2Ev.exit, label %_ZN2v86GlobalINS_5ValueEED2Ev.exit.i

_ZN2v86GlobalINS_5ValueEED2Ev.exit.i:             ; preds = %_ZN2v814PersistentBaseINS_7PromiseEE5ResetEv.exit.i
  tail call void @_ZN2v812api_internal13DisposeGlobalEPm(ptr noundef nonnull %1) #30
  store ptr null, ptr %ref_.i, align 8
  %.pre.i = load ptr, ptr %promise_.i, align 8
  %cmp.i.i.i22.i = icmp eq ptr %.pre.i, null
  br i1 %cmp.i.i.i22.i, label %_ZN4node2fs10FileHandle8CloseReqD2Ev.exit, label %if.end.i.i23.i

if.end.i.i23.i:                                   ; preds = %_ZN2v86GlobalINS_5ValueEED2Ev.exit.i
  tail call void @_ZN2v812api_internal13DisposeGlobalEPm(ptr noundef nonnull %.pre.i) #30
  store ptr null, ptr %promise_.i, align 8
  br label %_ZN4node2fs10FileHandle8CloseReqD2Ev.exit

_ZN4node2fs10FileHandle8CloseReqD2Ev.exit:        ; preds = %_ZN2v814PersistentBaseINS_7PromiseEE5ResetEv.exit.i, %_ZN2v86GlobalINS_5ValueEED2Ev.exit.i, %if.end.i.i23.i
  %2 = getelementptr inbounds i8, ptr %this, i64 -56
  store ptr getelementptr inbounds ({ [6 x ptr] }, ptr @_ZTVN4node11ReqWrapBaseE, i64 0, i32 0, i64 2), ptr %this, align 8
  %req_wrap_queue_.i.i.i = getelementptr inbounds i8, ptr %this, i64 8
  %next_.i.i.i.i.i = getelementptr inbounds i8, ptr %this, i64 16
  %3 = load ptr, ptr %next_.i.i.i.i.i, align 8
  %4 = load ptr, ptr %req_wrap_queue_.i.i.i, align 8
  %next_2.i.i.i.i.i = getelementptr inbounds i8, ptr %4, i64 8
  store ptr %3, ptr %next_2.i.i.i.i.i, align 8
  %5 = load ptr, ptr %req_wrap_queue_.i.i.i, align 8
  store ptr %5, ptr %3, align 8
  store ptr %req_wrap_queue_.i.i.i, ptr %req_wrap_queue_.i.i.i, align 8
  store ptr %req_wrap_queue_.i.i.i, ptr %next_.i.i.i.i.i, align 8
  tail call void @_ZN4node9AsyncWrapD2Ev(ptr noundef nonnull align 8 dereferenceable(56) %2) #30
  ret void
}